; Function Attrs: mustprogress nofree norecurse nosync nounwind willreturn memory(read, inaccessiblemem: none) uwtable
define noundef zeroext i1 @_ZNK10open_spiel2go7GoState10IsTerminalEv(ptr noundef nonnull readonly align 8 captures(none) dereferenceable(8110) %0) unnamed_addr #7 align 2 {
  %2 = getelementptr inbounds nuw i8, ptr %0, i64 32
  %3 = getelementptr inbounds nuw i8, ptr %0, i64 40
  %4 = load ptr, ptr %3, align 8
  %5 = load ptr, ptr %2, align 8
  %6 = ptrtoint ptr %4 to i64
  %7 = ptrtoint ptr %5 to i64
  %8 = sub i64 %6, %7
  %9 = ashr exact i64 %8, 4
  %10 = icmp ult i64 %9, 2
  br i1 %10, label %31, label %11

11:                                               ; preds = %1
  %12 = getelementptr inbounds nuw i8, ptr %0, i64 8104
  %13 = load i32, ptr %12, align 8
  %14 = sext i32 %13 to i64
  %.not = icmp ult i64 %9, %14
  br i1 %.not, label %15, label %31

15:                                               ; preds = %11
  %16 = getelementptr inbounds nuw i8, ptr %0, i64 8109
  %17 = load i8, ptr %16, align 1
  %18 = trunc i8 %17 to i1
  br i1 %18, label %31, label %19

19:                                               ; preds = %15
  %20 = getelementptr i8, ptr %5, i64 %8
  %21 = getelementptr i8, ptr %20, i64 -8
  %22 = load i64, ptr %21, align 8
  %23 = getelementptr inbounds nuw i8, ptr %0, i64 8028
  %24 = load i32, ptr %23, align 4
  %25 = sext i32 %24 to i64
  %26 = icmp eq i64 %22, %25
  br i1 %26, label %27, label %31

27:                                               ; preds = %19
  %28 = getelementptr i8, ptr %20, i64 -24
  %29 = load i64, ptr %28, align 8
  %30 = icmp eq i64 %29, %22
  br label %31

31:                                               ; preds = %11, %15, %27, %19, %1
  %.0 = phi i1 [ false, %1 ], [ true, %15 ], [ true, %11 ], [ false, %19 ], [ %30, %27 ]
  ret i1 %.0
}